TN:
SF:/home/raphael/Documents/GitHub/reschoice/src/MAIN.cpp
FN:34,111,_Z6doMainRKSt6vectorINSt7__cxx1112basic_stringIcSt11char_traitsIcESaIcEEESaIS5_EE
FN:8,31,_Z5validB5cxx11v
FNDA:11,_Z6doMainRKSt6vectorINSt7__cxx1112basic_stringIcSt11char_traitsIcESaIcEEESaIS5_EE
FNDA:9,_Z5validB5cxx11v
FNF:2
FNH:2
DA:8,9
DA:29,27
DA:34,11
DA:39,11
DA:40,1
DA:43,11
DA:46,10
DA:49,9
DA:52,9
DA:55,9
DA:58,27
DA:61,9
DA:64,9
DA:67,3
DA:70,1
DA:75,8
DA:78,2
DA:81,2
DA:86,8
DA:89,8
DA:92,537
DA:95,529
DA:98,529
DA:101,529
DA:106,8
DA:109,8
DA:111,11
LF:27
LH:27
end_of_record
TN:
SF:/home/raphael/Documents/GitHub/reschoice/src/buffer.cpp
FN:32,41,_ZN6Buffer4openEv
FN:44,57,_ZN6Buffer4saveERKd
FN:6,29,_ZN6BufferC2ERKmRKNSt7__cxx1112basic_stringIcSt11char_traitsIcESaIcEEE
FN:60,78,_ZN6Buffer5flushEv
FN:81,95,_ZN6Buffer5closeEv
FNDA:37,_ZN6Buffer4openEv
FNDA:939,_ZN6Buffer4saveERKd
FNDA:37,_ZN6BufferC2ERKmRKNSt7__cxx1112basic_stringIcSt11char_traitsIcESaIcEEE
FNDA:30,_ZN6Buffer5flushEv
FNDA:29,_ZN6Buffer5closeEv
FNF:5
FNH:5
DA:6,37
DA:7,37
DA:8,37
DA:9,37
DA:10,37
DA:11,37
DA:18,37
DA:19,37
DA:22,37
DA:23,37
DA:26,37
DA:27,37
DA:29,37
DA:32,37
DA:35,37
DA:38,37
DA:39,1
DA:41,36
DA:44,939
DA:49,939
DA:52,939
DA:55,939
DA:57,939
DA:60,30
DA:63,30
DA:66,30
DA:69,30
DA:72,30
DA:75,30
DA:76,30
DA:78,30
DA:81,29
DA:84,29
DA:87,29
DA:90,29
DA:93,29
DA:95,29
LF:37
LH:37
end_of_record
TN:
SF:/home/raphael/Documents/GitHub/reschoice/src/buffer.hpp
FN:32,32,_ZNK6Buffer4lastEv
FN:35,35,_ZNK6Buffer8capacityEv
FN:38,38,_ZNK6Buffer4sizeEv
FN:41,41,_ZNK6Buffer6isopenEv
FNDA:2,_ZNK6Buffer4lastEv
FNDA:4,_ZNK6Buffer8capacityEv
FNDA:3,_ZNK6Buffer4sizeEv
FNDA:1157,_ZNK6Buffer6isopenEv
FNF:4
FNH:4
DA:32,2
DA:35,4
DA:38,3
DA:41,1157
LF:4
LH:4
end_of_record
TN:
SF:/home/raphael/Documents/GitHub/reschoice/src/checker.hpp
FN:13,17,_ZN3chk10proportionIdEENSt7__cxx1112basic_stringIcSt11char_traitsIcESaIcEEERKT_
FN:21,25,_ZN3chk13onetothousandIjEENSt7__cxx1112basic_stringIcSt11char_traitsIcESaIcEEERKT_
FN:21,25,_ZN3chk13onetothousandImEENSt7__cxx1112basic_stringIcSt11char_traitsIcESaIcEEERKT_
FN:29,33,_ZN3chk8enoughmbIdEENSt7__cxx1112basic_stringIcSt11char_traitsIcESaIcEEERKT_
FN:37,41,_ZN3chk8positiveIdEENSt7__cxx1112basic_stringIcSt11char_traitsIcESaIcEEERKT_
FN:45,49,_ZN3chk9strictposIdEENSt7__cxx1112basic_stringIcSt11char_traitsIcESaIcEEERKT_
FN:45,49,_ZN3chk9strictposIjEENSt7__cxx1112basic_stringIcSt11char_traitsIcESaIcEEERKT_
FN:45,49,_ZN3chk9strictposImEENSt7__cxx1112basic_stringIcSt11char_traitsIcESaIcEEERKT_
FN:53,65,_ZN3chk11strictorderIdEENSt7__cxx1112basic_stringIcSt11char_traitsIcESaIcEEERKSt6vectorIT_SaIS8_EE
FN:53,65,_ZN3chk11strictorderImEENSt7__cxx1112basic_stringIcSt11char_traitsIcESaIcEEERKSt6vectorIT_SaIS8_EE
FNDA:47,_ZN3chk10proportionIdEENSt7__cxx1112basic_stringIcSt11char_traitsIcESaIcEEERKT_
FNDA:4,_ZN3chk13onetothousandIjEENSt7__cxx1112basic_stringIcSt11char_traitsIcESaIcEEERKT_
FNDA:2,_ZN3chk13onetothousandImEENSt7__cxx1112basic_stringIcSt11char_traitsIcESaIcEEERKT_
FNDA:14,_ZN3chk8enoughmbIdEENSt7__cxx1112basic_stringIcSt11char_traitsIcESaIcEEERKT_
FNDA:26,_ZN3chk8positiveIdEENSt7__cxx1112basic_stringIcSt11char_traitsIcESaIcEEERKT_
FNDA:6,_ZN3chk9strictposIdEENSt7__cxx1112basic_stringIcSt11char_traitsIcESaIcEEERKT_
FNDA:2,_ZN3chk9strictposIjEENSt7__cxx1112basic_stringIcSt11char_traitsIcESaIcEEERKT_
FNDA:39,_ZN3chk9strictposImEENSt7__cxx1112basic_stringIcSt11char_traitsIcESaIcEEERKT_
FNDA:4,_ZN3chk11strictorderIdEENSt7__cxx1112basic_stringIcSt11char_traitsIcESaIcEEERKSt6vectorIT_SaIS8_EE
FNDA:2,_ZN3chk11strictorderImEENSt7__cxx1112basic_stringIcSt11char_traitsIcESaIcEEERKSt6vectorIT_SaIS8_EE
FNF:10
FNH:10
DA:13,47
DA:15,94
DA:21,6
DA:23,12
DA:29,14
DA:31,28
DA:37,26
DA:39,52
DA:45,47
DA:47,94
DA:53,6
DA:56,6
DA:59,11
DA:60,10
DA:61,10
DA:63,2
LF:16
LH:16
end_of_record
TN:
SF:/home/raphael/Documents/GitHub/reschoice/src/individual.cpp
FN:110,115,_ZN10Individual10setEcotypeERKd
FN:118,128,_ZN10Individual7developERKd
FN:131,135,_ZN10Individual8disperseEv
FN:138,142,_ZN10Individual7setRankERKm
FN:145,145,_ZNK10Individual4getXEv
FN:146,146,_ZNK10Individual7getEff1Ev
FN:147,147,_ZNK10Individual7getEff2Ev
FN:148,148,_ZNK10Individual7getDiffEv
FN:149,149,_ZNK10Individual10getHabitatEv
FN:150,150,_ZNK10Individual10getEcotypeEv
FN:151,151,_ZNK10Individual9getChoiceEv
FN:152,152,_ZNK10Individual7getRankEv
FN:23,39,_ZN3ind8probbaseERKdS1_S1_
FN:42,56,_ZN3ind8probbestERKdS1_
FN:59,89,_ZN10Individual10makeChoiceERKdS1_S1_S1_S1_S1_
FN:6,20,_ZN10IndividualC2ERKdS1_
FN:92,96,_ZN10Individual7setDiffERKd
FN:99,107,_ZN10Individual6mutateERKdS1_
FNDA:5161,_ZN10Individual10setEcotypeERKd
FNDA:141,_ZN10Individual7developERKd
FNDA:513,_ZN10Individual8disperseEv
FNDA:51171,_ZN10Individual7setRankERKm
FNDA:56335,_ZNK10Individual4getXEv
FNDA:76552,_ZNK10Individual7getEff1Ev
FNDA:76958,_ZNK10Individual7getEff2Ev
FNDA:51170,_ZNK10Individual7getDiffEv
FNDA:107520,_ZNK10Individual10getHabitatEv
FNDA:5162,_ZNK10Individual10getEcotypeEv
FNDA:102343,_ZNK10Individual9getChoiceEv
FNDA:51172,_ZNK10Individual7getRankEv
FNDA:51176,_ZN3ind8probbaseERKdS1_S1_
FNDA:51176,_ZN3ind8probbestERKdS1_
FNDA:51173,_ZN10Individual10makeChoiceERKdS1_S1_S1_S1_S1_
FNDA:128,_ZN10IndividualC2ERKdS1_
FNDA:51170,_ZN10Individual7setDiffERKd
FNDA:13,_ZN10Individual6mutateERKdS1_
FNF:18
FNH:18
DA:6,128
DA:7,128
DA:8,128
DA:9,128
DA:10,128
DA:11,128
DA:12,128
DA:13,128
DA:14,128
DA:18,128
DA:20,128
DA:23,51176
DA:30,51176
DA:31,51176
DA:32,51176
DA:33,51176
DA:34,51176
DA:37,51176
DA:42,51176
DA:48,51176
DA:49,51176
DA:50,51176
DA:51,51176
DA:54,51176
DA:59,51173
DA:67,51173
DA:70,51173
DA:73,51173
DA:74,51173
DA:77,51173
DA:80,51173
DA:81,51173
DA:84,51173
DA:87,51173
DA:89,51173
DA:92,51170
DA:94,51170
DA:96,51170
DA:99,13
DA:102,13
DA:105,13
DA:107,13
DA:110,5161
DA:113,5161
DA:115,5161
DA:118,141
DA:121,141
DA:122,141
DA:125,141
DA:126,141
DA:128,141
DA:131,513
DA:133,513
DA:135,513
DA:138,51171
DA:140,51171
DA:142,51171
DA:145,56335
DA:146,76552
DA:147,76958
DA:148,51170
DA:149,107520
DA:150,5162
DA:151,102343
DA:152,51172
LF:65
LH:65
end_of_record
TN:
SF:/home/raphael/Documents/GitHub/reschoice/src/individual.hpp
FNF:0
FNH:0
DA:28,1
LF:1
LH:1
end_of_record
TN:
SF:/home/raphael/Documents/GitHub/reschoice/src/parameters.cpp
FN:131,167,_ZNK10Parameters4saveERKNSt7__cxx1112basic_stringIcSt11char_traitsIcESaIcEEE
FN:15,42,_ZN10ParametersC2ERKNSt7__cxx1112basic_stringIcSt11char_traitsIcESaIcEEE
FN:45,64,_ZNK10Parameters5checkEv
FN:6,13,_Z9clockseedv
FN:67,128,_ZN10Parameters4readERKNSt7__cxx1112basic_stringIcSt11char_traitsIcESaIcEEE
FNDA:11,_ZNK10Parameters4saveERKNSt7__cxx1112basic_stringIcSt11char_traitsIcESaIcEEE
FNDA:62,_ZN10ParametersC2ERKNSt7__cxx1112basic_stringIcSt11char_traitsIcESaIcEEE
FNDA:21,_ZNK10Parameters5checkEv
FNDA:62,_Z9clockseedv
FNDA:51,_ZN10Parameters4readERKNSt7__cxx1112basic_stringIcSt11char_traitsIcESaIcEEE
FNF:5
FNH:5
DA:6,62
DA:9,62
DA:12,62
DA:15,62
DA:16,62
DA:17,62
DA:18,62
DA:19,62
DA:20,62
DA:21,62
DA:22,62
DA:23,62
DA:24,62
DA:25,62
DA:26,62
DA:27,62
DA:28,62
DA:29,62
DA:30,62
DA:31,62
DA:32,62
DA:33,62
DA:34,62
DA:40,62
DA:42,23
DA:45,21
DA:47,21
DA:50,21
DA:51,21
DA:52,21
DA:53,21
DA:54,21
DA:55,21
DA:56,21
DA:57,21
DA:58,21
DA:59,21
DA:60,21
DA:61,21
DA:62,21
DA:64,21
DA:67,51
DA:73,51
DA:76,51
DA:79,164
DA:82,152
DA:85,152
DA:88,152
DA:91,152
DA:92,152
DA:95,152
DA:98,154
DA:99,142
DA:100,137
DA:101,131
DA:102,123
DA:103,114
DA:104,108
DA:105,99
DA:106,92
DA:107,83
DA:108,77
DA:109,68
DA:110,58
DA:111,48
DA:112,42
DA:113,35
DA:114,25
DA:115,18
DA:116,10
DA:118,1
DA:120,152
DA:123,12
DA:126,12
DA:128,51
DA:131,11
DA:137,11
DA:140,11
DA:141,1
DA:144,10
DA:145,10
DA:146,10
DA:147,10
DA:148,10
DA:149,10
DA:150,10
DA:151,10
DA:152,10
DA:153,10
DA:154,10
DA:155,10
DA:156,10
DA:157,10
DA:158,10
DA:159,10
DA:160,10
DA:161,10
DA:162,10
DA:165,10
DA:167,11
LF:100
LH:100
end_of_record
TN:
SF:/home/raphael/Documents/GitHub/reschoice/src/population.cpp
FN:108,130,_ZN3pop7fitnessERKdS1_S1_RKm
FN:133,158,_ZN4stat2eiERKSt6vectorIS0_ImSaImEESaIS2_EERKS0_IS0_IdSaIdEESaIS8_EESC_
FN:161,191,_ZN4stat2siERKSt6vectorIS0_ImSaImEESaIS2_EE
FN:194,460,_ZN10Population5cycleER7Printer
FN:51,67,_ZNK10Population5checkEv
FN:6,48,_ZN10PopulationC2ERK10Parameters
FN:70,77,_ZNK10Population4showEv
FN:80,85,_ZN10Population6moveonEv
FN:88,105,_ZN3pop8discoverERKdS1_S1_
FNDA:102347,_ZN3pop7fitnessERKdS1_S1_RKm
FNDA:25,_ZN4stat2eiERKSt6vectorIS0_ImSaImEESaIS2_EERKS0_IS0_IdSaIdEESaIS8_EESC_
FNDA:26,_ZN4stat2siERKSt6vectorIS0_ImSaImEESaIS2_EE
FNDA:534,_ZN10Population5cycleER7Printer
FNDA:544,_ZNK10Population5checkEv
FNDA:15,_ZN10PopulationC2ERK10Parameters
FNDA:3,_ZNK10Population4showEv
FNDA:530,_ZN10Population6moveonEv
FNDA:123351,_ZN3pop8discoverERKdS1_S1_
FNF:9
FNH:9
DA:6,15
DA:7,15
DA:8,15
DA:9,15
DA:10,15
DA:11,15
DA:12,15
DA:13,15
DA:14,15
DA:15,15
DA:16,15
DA:17,15
DA:18,15
DA:19,15
DA:20,15
DA:21,15
DA:22,60
DA:23,15
DA:24,15
DA:30,15
DA:33,15
DA:34,15
DA:37,15
DA:38,15
DA:41,136
DA:42,121
DA:45,15
DA:46,15
DA:48,60
DA:51,544
DA:54,544
DA:55,544
DA:56,544
DA:57,544
DA:58,544
DA:59,544
DA:60,544
DA:61,544
DA:62,544
DA:63,544
DA:64,544
DA:67,544
DA:70,3
DA:75,3
DA:77,3
DA:80,530
DA:83,530
DA:85,530
DA:88,123351
DA:95,123351
DA:96,123351
DA:97,123351
DA:100,123351
DA:103,119674
DA:108,102347
DA:116,102347
DA:117,102347
DA:118,102347
DA:121,102347
DA:128,102344
DA:133,25
DA:142,25
DA:143,25
DA:144,25
DA:145,25
DA:148,25
DA:151,25
DA:154,25
DA:156,25
DA:161,26
DA:164,26
DA:165,26
DA:166,26
DA:167,26
DA:168,26
DA:169,26
DA:170,26
DA:171,26
DA:174,26
DA:177,26
DA:180,26
DA:181,26
DA:182,26
DA:187,26
DA:189,26
DA:194,534
DA:217,534
DA:220,580
DA:223,534
DA:226,534
DA:229,1068
DA:232,534
DA:233,534
DA:236,5786
DA:239,5252
DA:242,21008
DA:245,21008
DA:246,15756
DA:249,56422
DA:252,51170
DA:255,51170
DA:258,51170
DA:261,51170
DA:262,51170
DA:265,51170
DA:268,51170
DA:269,51170
DA:272,51170
DA:273,51170
DA:276,51170
DA:277,51170
DA:280,51170
DA:281,51170
DA:284,51170
DA:285,51170
DA:288,51170
DA:289,51170
DA:292,51170
DA:293,51170
DA:296,51170
DA:299,51170
DA:302,51170
DA:305,51170
DA:308,51170
DA:309,51170
DA:311,51170
DA:314,5252
DA:315,426
DA:316,852
DA:317,1136
DA:318,1704
DA:324,15756
DA:325,15756
DA:326,31512
DA:327,21008
DA:328,21008
DA:329,21008
DA:334,56422
DA:337,51170
DA:340,51170
DA:341,51170
DA:342,51170
DA:343,51170
DA:346,51170
DA:349,51170
DA:352,51170
DA:355,51170
DA:358,51170
DA:360,2480
DA:361,3720
DA:362,1240
DA:363,3720
DA:368,51170
DA:371,5252
DA:374,534
DA:377,2136
DA:378,2136
DA:379,1602
DA:382,534
DA:385,5695
DA:388,5161
DA:391,5161
DA:394,5161
DA:397,5161
DA:398,11
DA:401,5161
DA:402,512
DA:405,5161
DA:408,5161
DA:409,5161
DA:410,5161
DA:413,5161
DA:414,5161
DA:415,5161
DA:418,5161
DA:420,504
DA:421,168
DA:422,336
DA:423,504
DA:429,534
DA:432,69
DA:434,46
DA:435,92
DA:436,138
DA:441,46
DA:444,69
DA:449,534
DA:452,534
DA:455,534
DA:458,534
DA:460,68364
LF:191
LH:191
end_of_record
TN:
SF:/home/raphael/Documents/GitHub/reschoice/src/population.hpp
FN:44,44,_ZNK10Population6keeponEv
FN:47,47,_ZNK10Population4sizeEv
FN:48,48,_ZNK10Population7getTimeEv
FN:49,49,_ZNK10Population10getHabitatERKm
FN:50,50,_ZNK10Population4getXERKm
FNDA:537,_ZNK10Population6keeponEv
FNDA:12,_ZNK10Population4sizeEv
FNDA:2,_ZNK10Population7getTimeEv
FNDA:16,_ZNK10Population10getHabitatERKm
FNDA:1,_ZNK10Population4getXERKm
FNF:5
FNH:5
DA:44,537
DA:47,12
DA:48,2
DA:49,16
DA:50,1
LF:5
LH:5
end_of_record
TN:
SF:/home/raphael/Documents/GitHub/reschoice/src/printer.cpp
FN:128,138,_ZN7Printer6existsERKNSt7__cxx1112basic_stringIcSt11char_traitsIcESaIcEEE
FN:141,154,_ZN7Printer6isopenERKNSt7__cxx1112basic_stringIcSt11char_traitsIcESaIcEEE
FN:157,170,_ZN7Printer8capacityERKNSt7__cxx1112basic_stringIcSt11char_traitsIcESaIcEEE
FN:173,190,_ZN7Printer4saveERKNSt7__cxx1112basic_stringIcSt11char_traitsIcESaIcEEERKd
FN:193,205,_ZN7Printer5closeEv
FN:208,227,_ZN7Printer4isonEv
FN:21,34,_ZN7PrinterC2ERKSt6vectorINSt7__cxx1112basic_stringIcSt11char_traitsIcESaIcEEESaIS6_EERKd
FN:37,56,_Z2inRKNSt7__cxx1112basic_stringIcSt11char_traitsIcESaIcEEERKSt6vectorIS4_SaIS4_EE
FN:59,94,_ZN7Printer4readERKNSt7__cxx1112basic_stringIcSt11char_traitsIcESaIcEEE
FN:6,18,_ZN3prt9memtosizeERKdS1_
FN:97,125,_ZN7Printer4openEv
FNDA:3,_ZN7Printer6existsERKNSt7__cxx1112basic_stringIcSt11char_traitsIcESaIcEEE
FNDA:8,_ZN7Printer6isopenERKNSt7__cxx1112basic_stringIcSt11char_traitsIcESaIcEEE
FNDA:3,_ZN7Printer8capacityERKNSt7__cxx1112basic_stringIcSt11char_traitsIcESaIcEEE
FNDA:6931,_ZN7Printer4saveERKNSt7__cxx1112basic_stringIcSt11char_traitsIcESaIcEEERKd
FNDA:5,_ZN7Printer5closeEv
FNDA:535,_ZN7Printer4isonEv
FNDA:20,_ZN7PrinterC2ERKSt6vectorINSt7__cxx1112basic_stringIcSt11char_traitsIcESaIcEEESaIS6_EERKd
FNDA:6,_Z2inRKNSt7__cxx1112basic_stringIcSt11char_traitsIcESaIcEEERKSt6vectorIS4_SaIS4_EE
FNDA:5,_ZN7Printer4readERKNSt7__cxx1112basic_stringIcSt11char_traitsIcESaIcEEE
FNDA:25,_ZN3prt9memtosizeERKdS1_
FNDA:7,_ZN7Printer4openEv
FNF:11
FNH:11
DA:6,25
DA:12,25
DA:13,25
DA:16,25
DA:21,20
DA:22,20
DA:23,20
DA:24,20
DA:25,20
DA:32,20
DA:34,20
DA:37,6
DA:43,6
DA:46,11
DA:49,10
DA:54,1
DA:59,5
DA:64,5
DA:67,5
DA:70,5
DA:71,2
DA:74,3
DA:77,8
DA:80,6
DA:81,1
DA:84,5
DA:89,2
DA:92,2
DA:94,6
DA:97,7
DA:100,7
DA:103,38
DA:106,31
DA:109,31
DA:112,31
DA:115,31
DA:118,31
DA:123,7
DA:125,7
DA:128,3
DA:133,3
DA:136,3
DA:141,8
DA:146,8
DA:149,8
DA:152,16
DA:157,3
DA:162,3
DA:165,3
DA:168,6
DA:173,6931
DA:179,6931
DA:182,6931
DA:185,933
DA:188,933
DA:193,5
DA:196,5
DA:199,31
DA:202,26
DA:205,5
DA:208,535
DA:211,535
DA:214,24
DA:217,207
DA:220,183
DA:225,24
LF:66
LH:66
end_of_record
TN:
SF:/home/raphael/Documents/GitHub/reschoice/src/printer.hpp
FNF:0
FNH:0
DA:25,15
LF:1
LH:1
end_of_record
TN:
SF:/home/raphael/Documents/GitHub/reschoice/src/reader.cpp
FN:122,160,_ZN6Reader8readlineEv
FN:163,168,_ZN6Reader5closeEv
FN:21,21,_ZNK6Reader13errorOpenFileB5cxx11Ev
FN:22,22,_ZNK6Reader14errorEmptyFileB5cxx11Ev
FN:23,23,_ZNK6Reader13errorReadNameB5cxx11Ev
FN:24,24,_ZNK6Reader12errorNoValueB5cxx11Ev
FN:25,25,_ZNK6Reader14errorReadValueB5cxx11Ev
FN:26,26,_ZNK6Reader15errorParseValueB5cxx11Ev
FN:27,27,_ZNK6Reader18errorTooManyValuesB5cxx11Ev
FN:28,28,_ZNK6Reader17errorTooFewValuesB5cxx11Ev
FN:29,29,_ZNK6Reader21errorInvalidParameterB5cxx11Ev
FN:32,37,_ZNK6Reader9readerrorEv
FN:40,53,_ZNK6Reader10checkerrorERKNSt7__cxx1112basic_stringIcSt11char_traitsIcESaIcEEE
FN:56,74,_ZN6Reader4openEv
FN:6,18,_ZN6ReaderC2ERKNSt7__cxx1112basic_stringIcSt11char_traitsIcESaIcEEE
FN:77,87,_ZN6Reader5resetEv
FN:90,119,_ZN6Reader8readnextERNSt7__cxx1119basic_istringstreamIcSt11char_traitsIcESaIcEEERNS0_12basic_stringIcS3_S4_EE
FNDA:184,_ZN6Reader8readlineEv
FNDA:32,_ZN6Reader5closeEv
FNDA:2,_ZNK6Reader13errorOpenFileB5cxx11Ev
FNDA:1,_ZNK6Reader14errorEmptyFileB5cxx11Ev
FNDA:1,_ZNK6Reader13errorReadNameB5cxx11Ev
FNDA:1,_ZNK6Reader12errorNoValueB5cxx11Ev
FNDA:1,_ZNK6Reader14errorReadValueB5cxx11Ev
FNDA:2,_ZNK6Reader15errorParseValueB5cxx11Ev
FNDA:21,_ZNK6Reader18errorTooManyValuesB5cxx11Ev
FNDA:1,_ZNK6Reader17errorTooFewValuesB5cxx11Ev
FNDA:2,_ZNK6Reader21errorInvalidParameterB5cxx11Ev
FNDA:2,_ZNK6Reader9readerrorEv
FNDA:185,_ZNK6Reader10checkerrorERKNSt7__cxx1112basic_stringIcSt11char_traitsIcESaIcEEE
FNDA:76,_ZN6Reader4openEv
FNDA:77,_ZN6ReaderC2ERKNSt7__cxx1112basic_stringIcSt11char_traitsIcESaIcEEE
FNDA:184,_ZN6Reader5resetEv
FNDA:366,_ZN6Reader8readnextERNSt7__cxx1119basic_istringstreamIcSt11char_traitsIcESaIcEEERNS0_12basic_stringIcS3_S4_EE
FNF:17
FNH:17
DA:6,77
DA:7,77
DA:8,77
DA:9,77
DA:10,77
DA:11,77
DA:12,77
DA:13,154
DA:18,77
DA:21,2
DA:22,1
DA:23,2
DA:24,2
DA:25,2
DA:26,4
DA:27,42
DA:28,2
DA:29,4
DA:32,2
DA:35,2
DA:40,185
DA:45,340
DA:48,30
DA:51,30
DA:53,30
DA:56,76
DA:59,76
DA:62,76
DA:63,2
DA:66,74
DA:67,1
DA:70,73
DA:71,73
DA:72,73
DA:74,73
DA:77,184
DA:80,184
DA:81,184
DA:82,184
DA:83,368
DA:84,184
DA:85,184
DA:87,184
DA:90,366
DA:96,366
DA:99,366
DA:102,366
DA:105,1960
DA:108,1596
DA:111,1596
DA:117,366
DA:122,184
DA:125,184
DA:126,184
DA:129,184
DA:132,184
DA:135,184
DA:138,184
DA:141,184
DA:144,184
DA:147,184
DA:150,184
DA:153,182
DA:154,1
DA:157,181
DA:158,1
DA:160,184
DA:163,32
DA:166,32
DA:168,32
LF:70
LH:70
end_of_record
TN:
SF:/home/raphael/Documents/GitHub/reschoice/src/reader.hpp
FN:156,187,_ZN6Reader4readIbEEvRT_RKSt8functionIFNSt7__cxx1112basic_stringIcSt11char_traitsIcESaIcEEERKS1_EE
FN:156,187,_ZN6Reader4readIdEEvRT_RKSt8functionIFNSt7__cxx1112basic_stringIcSt11char_traitsIcESaIcEEERKS1_EE
FN:156,187,_ZN6Reader4readImEEvRT_RKSt8functionIFNSt7__cxx1112basic_stringIcSt11char_traitsIcESaIcEEERKS1_EE
FN:31,31,_ZNK6Reader6isopenEv
FN:32,32,_ZN6Reader5iseofEv
FN:33,33,_ZN6Reader5iseolEv
FN:34,34,_ZNK6Reader7isemptyEv
FN:35,35,_ZNK6Reader9iscommentEv
FN:36,36,_ZNK6Reader8getcountEv
FN:37,37,_ZNK6Reader11getfilenameB5cxx11Ev
FN:38,38,_ZNK6Reader7getlineB5cxx11Ev
FN:39,39,_ZNK6Reader7getnameB5cxx11Ev
FN:43,58,_ZN6Reader9readvalueIbEEvRT_RKSt8functionIFNSt7__cxx1112basic_stringIcSt11char_traitsIcESaIcEEERKS1_EE
FN:43,58,_ZN6Reader9readvalueIdEEvRT_RKSt8functionIFNSt7__cxx1112basic_stringIcSt11char_traitsIcESaIcEEERKS1_EE
FN:43,58,_ZN6Reader9readvalueImEEvRT_RKSt8functionIFNSt7__cxx1112basic_stringIcSt11char_traitsIcESaIcEEERKS1_EE
FN:62,119,_ZN6Reader10readvaluesIdEEvRSt6vectorIT_SaIS2_EERKmRKSt8functionIFNSt7__cxx1112basic_stringIcSt11char_traitsIcESaIcEEERKS2_EERKS8_IFSE_RKS4_EE
FN:62,119,_ZN6Reader10readvaluesImEEvRSt6vectorIT_SaIS2_EERKmRKSt8functionIFNSt7__cxx1112basic_stringIcSt11char_traitsIcESaIcEEERKS2_EERKS8_IFSE_RKS4_EE
FNDA:33,_ZN6Reader4readIbEEvRT_RKSt8functionIFNSt7__cxx1112basic_stringIcSt11char_traitsIcESaIcEEERKS1_EE
FNDA:84,_ZN6Reader4readIdEEvRT_RKSt8functionIFNSt7__cxx1112basic_stringIcSt11char_traitsIcESaIcEEERKS1_EE
FNDA:67,_ZN6Reader4readImEEvRT_RKSt8functionIFNSt7__cxx1112basic_stringIcSt11char_traitsIcESaIcEEERKS1_EE
FNDA:337,_ZNK6Reader6isopenEv
FNDA:497,_ZN6Reader5iseofEv
FNDA:340,_ZN6Reader5iseolEv
FNDA:312,_ZNK6Reader7isemptyEv
FNDA:309,_ZNK6Reader9iscommentEv
FNDA:9,_ZNK6Reader8getcountEv
FNDA:1,_ZNK6Reader11getfilenameB5cxx11Ev
FNDA:8,_ZNK6Reader7getlineB5cxx11Ev
FNDA:160,_ZNK6Reader7getnameB5cxx11Ev
FNDA:33,_ZN6Reader9readvalueIbEEvRT_RKSt8functionIFNSt7__cxx1112basic_stringIcSt11char_traitsIcESaIcEEERKS1_EE
FNDA:81,_ZN6Reader9readvalueIdEEvRT_RKSt8functionIFNSt7__cxx1112basic_stringIcSt11char_traitsIcESaIcEEERKS1_EE
FNDA:53,_ZN6Reader9readvalueImEEvRT_RKSt8functionIFNSt7__cxx1112basic_stringIcSt11char_traitsIcESaIcEEERKS1_EE
FNDA:1,_ZN6Reader10readvaluesIdEEvRSt6vectorIT_SaIS2_EERKmRKSt8functionIFNSt7__cxx1112basic_stringIcSt11char_traitsIcESaIcEEERKS2_EERKS8_IFSE_RKS4_EE
FNDA:5,_ZN6Reader10readvaluesImEEvRSt6vectorIT_SaIS2_EERKmRKSt8functionIFNSt7__cxx1112basic_stringIcSt11char_traitsIcESaIcEEERKS2_EERKS8_IFSE_RKS4_EE
FNF:17
FNH:17
DA:31,337
DA:32,497
DA:33,340
DA:34,312
DA:35,309
DA:36,9
DA:37,1
DA:38,8
DA:39,160
DA:43,167
DA:52,167
DA:55,136
DA:56,20
DA:58,116
DA:62,6
DA:75,6
DA:78,6
DA:79,6
DA:82,6
DA:85,23
DA:88,18
DA:89,1
DA:95,17
DA:98,17
DA:101,17
DA:106,5
DA:107,1
DA:110,4
DA:111,4
DA:114,6
DA:117,4
DA:119,4
DA:156,184
DA:165,184
DA:168,184
DA:169,1
DA:172,183
DA:178,183
DA:179,2
DA:182,246
DA:185,181
DA:187,242
LF:42
LH:42
end_of_record
TN:
SF:/home/raphael/Documents/GitHub/reschoice/src/utilities.hpp
FN:10,10,_ZN3utl3sqrERKd
FNDA:5472,_ZN3utl3sqrERKd
FNF:1
FNH:1
DA:10,5472
LF:1
LH:1
end_of_record
